; Function Attrs: mustprogress nounwind uwtable
define internal fastcc void @_ZL18formatChecksumKindB5cxx11N4llvm8codeview16FileChecksumKindE(ptr dead_on_unwind noalias writable align 8 %0, i8 noundef zeroext %1) unnamed_addr #1 {
  %3 = alloca %"class.std::allocator", align 1
  %4 = alloca %"class.std::allocator", align 1
  %5 = alloca %"class.std::allocator", align 1
  %6 = alloca %"class.std::allocator", align 1
  switch i8 %1, label %15 [
    i8 0, label %7
    i8 1, label %9
    i8 2, label %11
    i8 3, label %13
  ]

7:                                                ; preds = %2
  call void @_ZNSaIcEC1Ev(ptr noundef nonnull align 1 dereferenceable(1) %3) #19
  %8 = call noundef ptr @_ZNSt7__cxx1112basic_stringIcSt11char_traitsIcESaIcEE13_M_local_dataEv(ptr noundef nonnull align 8 dereferenceable(32) %0) #19
  call void @_ZNSt7__cxx1112basic_stringIcSt11char_traitsIcESaIcEE12_Alloc_hiderC1EPcRKS3_(ptr noundef nonnull align 8 dereferenceable(8) %0, ptr noundef %8, ptr noundef nonnull align 1 dereferenceable(1) %3) #19
  call void @_ZNSt7__cxx1112basic_stringIcSt11char_traitsIcESaIcEE12_M_constructIPKcEEvT_S8_St20forward_iterator_tag(ptr noundef nonnull align 8 dereferenceable(32) %0, ptr noundef nonnull @.str.15, ptr noundef nonnull getelementptr inbounds (i8, ptr @.str.15, i64 4))
  call void @_ZNSaIcED1Ev(ptr noundef nonnull align 1 dereferenceable(1) %3) #19
  br label %16

9:                                                ; preds = %2
  call void @_ZNSaIcEC1Ev(ptr noundef nonnull align 1 dereferenceable(1) %4) #19
  %10 = call noundef ptr @_ZNSt7__cxx1112basic_stringIcSt11char_traitsIcESaIcEE13_M_local_dataEv(ptr noundef nonnull align 8 dereferenceable(32) %0) #19
  call void @_ZNSt7__cxx1112basic_stringIcSt11char_traitsIcESaIcEE12_Alloc_hiderC1EPcRKS3_(ptr noundef nonnull align 8 dereferenceable(8) %0, ptr noundef %10, ptr noundef nonnull align 1 dereferenceable(1) %4) #19
  call void @_ZNSt7__cxx1112basic_stringIcSt11char_traitsIcESaIcEE12_M_constructIPKcEEvT_S8_St20forward_iterator_tag(ptr noundef nonnull align 8 dereferenceable(32) %0, ptr noundef nonnull @.str.16, ptr noundef nonnull getelementptr inbounds (i8, ptr @.str.16, i64 3))
  call void @_ZNSaIcED1Ev(ptr noundef nonnull align 1 dereferenceable(1) %4) #19
  br label %16

11:                                               ; preds = %2
  call void @_ZNSaIcEC1Ev(ptr noundef nonnull align 1 dereferenceable(1) %5) #19
  %12 = call noundef ptr @_ZNSt7__cxx1112basic_stringIcSt11char_traitsIcESaIcEE13_M_local_dataEv(ptr noundef nonnull align 8 dereferenceable(32) %0) #19
  call void @_ZNSt7__cxx1112basic_stringIcSt11char_traitsIcESaIcEE12_Alloc_hiderC1EPcRKS3_(ptr noundef nonnull align 8 dereferenceable(8) %0, ptr noundef %12, ptr noundef nonnull align 1 dereferenceable(1) %5) #19
  call void @_ZNSt7__cxx1112basic_stringIcSt11char_traitsIcESaIcEE12_M_constructIPKcEEvT_S8_St20forward_iterator_tag(ptr noundef nonnull align 8 dereferenceable(32) %0, ptr noundef nonnull @.str.17, ptr noundef nonnull getelementptr inbounds (i8, ptr @.str.17, i64 5))
  call void @_ZNSaIcED1Ev(ptr noundef nonnull align 1 dereferenceable(1) %5) #19
  br label %16

13:                                               ; preds = %2
  call void @_ZNSaIcEC1Ev(ptr noundef nonnull align 1 dereferenceable(1) %6) #19
  %14 = call noundef ptr @_ZNSt7__cxx1112basic_stringIcSt11char_traitsIcESaIcEE13_M_local_dataEv(ptr noundef nonnull align 8 dereferenceable(32) %0) #19
  call void @_ZNSt7__cxx1112basic_stringIcSt11char_traitsIcESaIcEE12_Alloc_hiderC1EPcRKS3_(ptr noundef nonnull align 8 dereferenceable(8) %0, ptr noundef %14, ptr noundef nonnull align 1 dereferenceable(1) %6) #19
  call void @_ZNSt7__cxx1112basic_stringIcSt11char_traitsIcESaIcEE12_M_constructIPKcEEvT_S8_St20forward_iterator_tag(ptr noundef nonnull align 8 dereferenceable(32) %0, ptr noundef nonnull @.str.18, ptr noundef nonnull getelementptr inbounds (i8, ptr @.str.18, i64 7))
  call void @_ZNSaIcED1Ev(ptr noundef nonnull align 1 dereferenceable(1) %6) #19
  br label %16

15:                                               ; preds = %2
  tail call void @_ZN4llvm3pdb17formatUnknownEnumINS_8codeview16FileChecksumKindEEENSt7__cxx1112basic_stringIcSt11char_traitsIcESaIcEEET_(ptr dead_on_unwind writable sret(%"class.std::__cxx11::basic_string") align 8 %0, i8 noundef zeroext %1)
  br label %16

16:                                               ; preds = %15, %13, %11, %9, %7
  ret void
}